; Function Attrs: mustprogress uwtable
define void @_ZN4LIEF5MachO4Hash5visitERKNS0_13CodeSignatureE(ptr noundef nonnull align 8 dereferenceable(64) %0, ptr noundef nonnull align 8 dereferenceable(80) %1) unnamed_addr #3 align 2 {
  %3 = load ptr, ptr %0, align 8
  %4 = getelementptr inbounds i8, ptr %3, i64 872
  %5 = load ptr, ptr %4, align 8
  tail call void %5(ptr noundef nonnull align 8 dereferenceable(64) %0, ptr noundef nonnull align 8 dereferenceable(56) %1)
  %6 = tail call noundef i32 @_ZNK4LIEF5MachO13CodeSignature11data_offsetEv(ptr noundef nonnull align 8 dereferenceable(80) %1)
  %7 = zext i32 %6 to i64
  %8 = load ptr, ptr %0, align 8
  %9 = getelementptr inbounds i8, ptr %8, i64 1328
  %10 = load ptr, ptr %9, align 8
  %11 = tail call noundef nonnull align 8 dereferenceable(64) ptr %10(ptr noundef nonnull align 8 dereferenceable(64) %0, i64 noundef %7)
  %12 = tail call noundef i32 @_ZNK4LIEF5MachO13CodeSignature9data_sizeEv(ptr noundef nonnull align 8 dereferenceable(80) %1)
  %13 = zext i32 %12 to i64
  %14 = load ptr, ptr %0, align 8
  %15 = getelementptr inbounds i8, ptr %14, i64 1328
  %16 = load ptr, ptr %15, align 8
  %17 = tail call noundef nonnull align 8 dereferenceable(64) ptr %16(ptr noundef nonnull align 8 dereferenceable(64) %0, i64 noundef %13)
  ret void
}